target datalayout = "e-m:e-p270:32:32-p271:32:32-p272:64:64-i64:64-i128:128-f80:128-n8:16:32:64-S128"
target triple = "x86_64-pc-linux-gnu"

%struct.WebPBitstreamFeatures = type { i32, i32, i32, i32, i32, [5 x i32] }
%struct.WebPData = type { ptr, i64 }
%struct.WebPAnimDecoder = type { ptr, %struct.WebPDecoderConfig, ptr, %struct.WebPAnimInfo, ptr, ptr, i32, %struct.WebPIterator, i32, i32 }
%struct.WebPDecoderConfig = type { %struct.WebPBitstreamFeatures, %struct.WebPDecBuffer, %struct.WebPDecoderOptions }
%struct.WebPDecBuffer = type { i32, i32, i32, i32, %union.anon, [4 x i32], ptr }
%union.anon = type { %struct.WebPYUVABuffer }
%struct.WebPYUVABuffer = type { ptr, ptr, ptr, ptr, i32, i32, i32, i32, i64, i64, i64, i64 }
%struct.WebPDecoderOptions = type { i32, i32, i32, i32, i32, i32, i32, i32, i32, i32, i32, i32, i32, i32, [5 x i32] }
%struct.WebPAnimInfo = type { i32, i32, i32, i32, i32, [4 x i32] }
%struct.WebPIterator = type { i32, i32, i32, i32, i32, i32, i32, i32, i32, %struct.WebPData, i32, i32, [2 x i32], ptr }

; Function Attrs: nounwind uwtable
define i32 @WebPAnimDecoderHasMoreFrames(ptr noundef %0) #0 {
  %2 = alloca i32, align 4
  %3 = alloca ptr, align 8
  store ptr %0, ptr %3, align 8, !tbaa !15
  %4 = load ptr, ptr %3, align 8, !tbaa !15
  %5 = icmp eq ptr %4, null
  br i1 %5, label %6, label %7

6:                                                ; preds = %1
  store i32 0, ptr %2, align 4
  br label %17

7:                                                ; preds = %1
  %8 = load ptr, ptr %3, align 8, !tbaa !15
  %9 = getelementptr inbounds nuw %struct.WebPAnimDecoder, ptr %8, i32 0, i32 9
  %10 = load i32, ptr %9, align 4, !tbaa !52
  %11 = load ptr, ptr %3, align 8, !tbaa !15
  %12 = getelementptr inbounds nuw %struct.WebPAnimDecoder, ptr %11, i32 0, i32 3
  %13 = getelementptr inbounds nuw %struct.WebPAnimInfo, ptr %12, i32 0, i32 4
  %14 = load i32, ptr %13, align 8, !tbaa !37
  %15 = icmp sle i32 %10, %14
  %16 = zext i1 %15 to i32
  store i32 %16, ptr %2, align 4
  br label %17

17:                                               ; preds = %7, %6
  %18 = load i32, ptr %2, align 4
  ret i32 %18
}