; Function Attrs: mustprogress nofree norecurse nosync nounwind willreturn memory(argmem: read) uwtable
define range(i32 0, 2) i32 @WebPAnimDecoderHasMoreFrames(ptr noundef readonly captures(address_is_null) %0) local_unnamed_addr #6 {
  %2 = icmp eq ptr %0, null
  br i1 %2, label %10, label %3

3:                                                ; preds = %1
  %4 = getelementptr inbounds nuw i8, ptr %0, i64 404
  %5 = load i32, ptr %4, align 4, !tbaa !37
  %6 = getelementptr inbounds nuw i8, ptr %0, i64 272
  %7 = load i32, ptr %6, align 8, !tbaa !33
  %8 = icmp sle i32 %5, %7
  %9 = zext i1 %8 to i32
  br label %10

10:                                               ; preds = %1, %3
  %.0 = phi i32 [ %9, %3 ], [ 0, %1 ]
  ret i32 %.0
}